
ch585_picc.elf:     file format elf32-littleriscv


Disassembly of section .init:

00000000 <InterruptVector>:
   0:	1430006f          	j	942 <handle_reset>
   4:	00000000          	.word	0x00000000
   8:	000009ee          	.word	0x000009ee
   c:	000009ee          	.word	0x000009ee
  10:	f3f9bda9          	.word	0xf3f9bda9
  14:	000009ee          	.word	0x000009ee
	...
  20:	000009ee          	.word	0x000009ee
  24:	000009ee          	.word	0x000009ee
	...
  30:	000009ee          	.word	0x000009ee
  34:	00000000          	.word	0x00000000
  38:	000009ee          	.word	0x000009ee
  3c:	00000000          	.word	0x00000000
  40:	20000000          	.word	0x20000000
  44:	000009ee          	.word	0x000009ee
  48:	000009ee          	.word	0x000009ee
  4c:	000009ee          	.word	0x000009ee
  50:	000009ee          	.word	0x000009ee
  54:	000009ee          	.word	0x000009ee
  58:	000009ee          	.word	0x000009ee
  5c:	00000000          	.word	0x00000000
  60:	000009ee          	.word	0x000009ee
  64:	000009ee          	.word	0x000009ee
  68:	000009ee          	.word	0x000009ee
  6c:	000009ee          	.word	0x000009ee
  70:	000009ee          	.word	0x000009ee
  74:	000009ee          	.word	0x000009ee
  78:	000009ee          	.word	0x000009ee
  7c:	000009ee          	.word	0x000009ee
  80:	2000004a          	.word	0x2000004a
  84:	000009ee          	.word	0x000009ee
  88:	000009ee          	.word	0x000009ee
  8c:	000009ee          	.word	0x000009ee
  90:	000009ee          	.word	0x000009ee
  94:	000009ee          	.word	0x000009ee
  98:	000009ee          	.word	0x000009ee
  9c:	000009ee          	.word	0x000009ee

Disassembly of section .highcode:

20000000 <TMR0_IRQHandler>:
};


__INTERRUPT
__HIGH_CODE
void TMR0_IRQHandler(void) {
20000000:	7139                	addi	sp,sp,-64
20000002:	de06                	sw	ra,60(sp)
20000004:	dc16                	sw	t0,56(sp)
20000006:	da1a                	sw	t1,52(sp)
20000008:	d81e                	sw	t2,48(sp)
2000000a:	d62a                	sw	a0,44(sp)
2000000c:	d42e                	sw	a1,40(sp)
2000000e:	d232                	sw	a2,36(sp)
20000010:	d036                	sw	a3,32(sp)
20000012:	ce3a                	sw	a4,28(sp)
20000014:	cc3e                	sw	a5,24(sp)
20000016:	ca42                	sw	a6,20(sp)
20000018:	c846                	sw	a7,16(sp)
2000001a:	c672                	sw	t3,12(sp)
2000001c:	c476                	sw	t4,8(sp)
2000001e:	c27a                	sw	t5,4(sp)
20000020:	c07e                	sw	t6,0(sp)
    nfca_picc_rx_irq_handler();
20000022:	2b11                	jal	20000536 <nfca_picc_rx_irq_handler>
}
20000024:	50f2                	lw	ra,60(sp)
20000026:	52e2                	lw	t0,56(sp)
20000028:	5352                	lw	t1,52(sp)
2000002a:	53c2                	lw	t2,48(sp)
2000002c:	5532                	lw	a0,44(sp)
2000002e:	55a2                	lw	a1,40(sp)
20000030:	5612                	lw	a2,36(sp)
20000032:	5682                	lw	a3,32(sp)
20000034:	4772                	lw	a4,28(sp)
20000036:	47e2                	lw	a5,24(sp)
20000038:	4852                	lw	a6,20(sp)
2000003a:	48c2                	lw	a7,16(sp)
2000003c:	4e32                	lw	t3,12(sp)
2000003e:	4ea2                	lw	t4,8(sp)
20000040:	4f12                	lw	t5,4(sp)
20000042:	4f82                	lw	t6,0(sp)
20000044:	6121                	addi	sp,sp,64
20000046:	30200073          	mret

2000004a <TMR3_IRQHandler>:

__INTERRUPT
__HIGH_CODE
void TMR3_IRQHandler(void) {
2000004a:	1141                	addi	sp,sp,-16
2000004c:	c43e                	sw	a5,8(sp)
2000004e:	c63a                	sw	a4,12(sp)
	R8_TMR3_INT_FLAG = R8_TMR3_INT_FLAG;
20000050:	400037b7          	lui	a5,0x40003
20000054:	c067c703          	lbu	a4,-1018(a5) # 40002c06 <_eusrstack+0x1ffe2c06>
20000058:	0ff77713          	zext.b	a4,a4
2000005c:	c0e78323          	sb	a4,-1018(a5)
	R8_TMR3_CTRL_DMA = 0;
20000060:	400037b7          	lui	a5,0x40003
20000064:	c00780a3          	sb	zero,-1023(a5) # 40002c01 <_eusrstack+0x1ffe2c01>
	R32_TMR3_DMA_END = R32_TMR3_DMA_NOW + 0x100;
20000068:	c147a783          	lw	a5,-1004(a5)
2000006c:	40003737          	lui	a4,0x40003
20000070:	10078793          	addi	a5,a5,256
20000074:	c0f72e23          	sw	a5,-996(a4) # 40002c1c <_eusrstack+0x1ffe2c1c>
	
	R32_TMR0_CNT_END = 0x120;
20000078:	400027b7          	lui	a5,0x40002
2000007c:	12000713          	li	a4,288
20000080:	c7d8                	sw	a4,12(a5)
	R8_TMR0_CTRL_DMA = RB_TMR_DMA_LOOP | RB_TMR_DMA_ENABLE;
20000082:	4715                	li	a4,5
20000084:	00e780a3          	sb	a4,1(a5) # 40002001 <_eusrstack+0x1ffe2001>
	R8_TMR0_CTRL_MOD = 0xe5;
20000088:	5715                	li	a4,-27
2000008a:	00e78023          	sb	a4,0(a5)
}

// Clear Interrupt Pending
RV_STATIC_INLINE void NVIC_ClearPendingIRQ(IRQn_Type IRQn)
{
	NVIC->IPRR[((uint32_t)(IRQn) >> 5)] = (1 << ((uint32_t)(IRQn) & 0x1F));
2000008e:	e000e7b7          	lui	a5,0xe000e
20000092:	4705                	li	a4,1
20000094:	28e7a223          	sw	a4,644(a5) # e000e284 <_eusrstack+0xbffee284>

	NVIC_ClearPendingIRQ(TMR3_IRQn);
	return;
}
20000098:	4732                	lw	a4,12(sp)
2000009a:	47a2                	lw	a5,8(sp)
2000009c:	0141                	addi	sp,sp,16
2000009e:	30200073          	mret

200000a2 <ISO14443ACalOddParityBit>:
	NVIC_EnableIRQ(TMR0_IRQn);
}

__HIGH_CODE
void ISO14443ACalOddParityBit(uint8_t *data, uint8_t *out_parity, uint16_t len) {
    for (int i = 0; i < len; i++) {
200000a2:	4781                	li	a5,0
        out_parity[i] = byteParityBitsTable[data[i]];
200000a4:	6685                	lui	a3,0x1
    for (int i = 0; i < len; i++) {
200000a6:	00c7c363          	blt	a5,a2,200000ac <ISO14443ACalOddParityBit+0xa>
    }
}
200000aa:	8082                	ret
        out_parity[i] = byteParityBitsTable[data[i]];
200000ac:	00f508b3          	add	a7,a0,a5
200000b0:	0008c883          	lbu	a7,0(a7)
200000b4:	ce068713          	addi	a4,a3,-800 # ce0 <byteParityBitsTable>
200000b8:	00f58833          	add	a6,a1,a5
200000bc:	9746                	add	a4,a4,a7
200000be:	00074703          	lbu	a4,0(a4)
    for (int i = 0; i < len; i++) {
200000c2:	0785                	addi	a5,a5,1
        out_parity[i] = byteParityBitsTable[data[i]];
200000c4:	00e80023          	sb	a4,0(a6)
    for (int i = 0; i < len; i++) {
200000c8:	bff9                	j	200000a6 <ISO14443ACalOddParityBit+0x4>

200000ca <nfca_picc_data_handler>:

__HIGH_CODE
static uint16_t nfca_picc_data_handler(uint16_t bits_num) {
	uint16_t send_bits = 0;

	if((bits_num == 7) && (((g_picc_data_buf[0] == 0x26)) || (g_picc_data_buf[0] == 0x52))) {
200000ca:	479d                	li	a5,7
200000cc:	02f51d63          	bne	a0,a5,20000106 <nfca_picc_data_handler+0x3c>
200000d0:	4301c703          	lbu	a4,1072(gp) # 20000fd4 <g_picc_data_buf>
200000d4:	02600693          	li	a3,38
200000d8:	00d70763          	beq	a4,a3,200000e6 <nfca_picc_data_handler+0x1c>
200000dc:	05200693          	li	a3,82
	uint16_t send_bits = 0;
200000e0:	4501                	li	a0,0
	if((bits_num == 7) && (((g_picc_data_buf[0] == 0x26)) || (g_picc_data_buf[0] == 0x52))) {
200000e2:	02d71463          	bne	a4,a3,2000010a <nfca_picc_data_handler+0x40>
static uint16_t nfca_picc_data_handler(uint16_t bits_num) {
200000e6:	1141                	addi	sp,sp,-16
		g_picc_data_buf[0] = 0x44;
200000e8:	04400713          	li	a4,68
		g_picc_data_buf[1] = 0x00;
		send_bits = 16;
		ISO14443ACalOddParityBit(g_picc_data_buf, g_picc_parity_buf, 2);
200000ec:	43018513          	addi	a0,gp,1072 # 20000fd4 <g_picc_data_buf>
200000f0:	4609                	li	a2,2
200000f2:	41c18593          	addi	a1,gp,1052 # 20000fc0 <g_picc_parity_buf>
static uint16_t nfca_picc_data_handler(uint16_t bits_num) {
200000f6:	c606                	sw	ra,12(sp)
		g_picc_data_buf[0] = 0x44;
200000f8:	42e19823          	sh	a4,1072(gp) # 20000fd4 <g_picc_data_buf>
		ISO14443ACalOddParityBit(g_picc_data_buf, g_picc_parity_buf, 2);
200000fc:	375d                	jal	200000a2 <ISO14443ACalOddParityBit>
	}

	return send_bits;
}
200000fe:	40b2                	lw	ra,12(sp)
		send_bits = 16;
20000100:	4541                	li	a0,16
}
20000102:	0141                	addi	sp,sp,16
20000104:	8082                	ret
	uint16_t send_bits = 0;
20000106:	4501                	li	a0,0
20000108:	8082                	ret
}
2000010a:	8082                	ret

2000010c <wch_nfca_picc_signal_decode>:
2000010c:	415c                	lw	a5,4(a0)
2000010e:	1101                	addi	sp,sp,-32
20000110:	ce22                	sw	s0,28(sp)
20000112:	cc26                	sw	s1,24(sp)
20000114:	00051a23          	sh	zero,20(a0)
20000118:	02000fb7          	lui	t6,0x2000
2000011c:	00078023          	sb	zero,0(a5)
20000120:	4881                	li	a7,0
20000122:	4781                	li	a5,0
20000124:	4801                	li	a6,0
20000126:	4e01                	li	t3,0
20000128:	03f00313          	li	t1,63
2000012c:	43a1                	li	t2,8
2000012e:	4405                	li	s0,1
20000130:	0f85                	addi	t6,t6,1 # 2000001 <ch585_picc.c.61ef0a40+0x1ffe018>
20000132:	0005ae83          	lw	t4,0(a1)
20000136:	97f6                	add	a5,a5,t4
20000138:	04f37f63          	bgeu	t1,a5,20000196 <wch_nfca_picc_signal_decode+0x8a>
2000013c:	f9f78e93          	addi	t4,a5,-97
20000140:	080e0b63          	beqz	t3,200001d6 <wch_nfca_picc_signal_decode+0xca>
20000144:	07d36263          	bltu	t1,t4,200001a8 <wch_nfca_picc_signal_decode+0x9c>
20000148:	8640                	.insn	2, 0x8640
2000014a:	4785                	li	a5,1
2000014c:	4e05                	li	t3,1
2000014e:	4481                	li	s1,0
20000150:	00c10e93          	addi	t4,sp,12
20000154:	9ea6                	add	t4,t4,s1
20000156:	000ecf03          	lbu	t5,0(t4)
2000015a:	08789963          	bne	a7,t2,200001ec <wch_nfca_picc_signal_decode+0xe0>
2000015e:	00852883          	lw	a7,8(a0)
20000162:	98c2                	add	a7,a7,a6
20000164:	01e88023          	sb	t5,0(a7)
20000168:	01255883          	lhu	a7,18(a0)
2000016c:	0805                	addi	a6,a6,1
2000016e:	0ff87813          	zext.b	a6,a6
20000172:	05187863          	bgeu	a6,a7,200001c2 <wch_nfca_picc_signal_decode+0xb6>
20000176:	00452883          	lw	a7,4(a0)
2000017a:	98c2                	add	a7,a7,a6
2000017c:	00088023          	sb	zero,0(a7)
20000180:	4881                	li	a7,0
20000182:	00148e93          	addi	t4,s1,1
20000186:	4485                	li	s1,1
20000188:	fcfee4e3          	bltu	t4,a5,20000150 <wch_nfca_picc_signal_decode+0x44>
2000018c:	01455e83          	lhu	t4,20(a0)
20000190:	97f6                	add	a5,a5,t4
20000192:	a95e                	.insn	2, 0xa95e
20000194:	4781                	li	a5,0
20000196:	01f5a023          	sw	t6,0(a1)
2000019a:	06c58863          	beq	a1,a2,2000020a <wch_nfca_picc_signal_decode+0xfe>
2000019e:	0591                	addi	a1,a1,4
200001a0:	f8e5e9e3          	bltu	a1,a4,20000132 <wch_nfca_picc_signal_decode+0x26>
200001a4:	85b6                	mv	a1,a3
200001a6:	b771                	j	20000132 <wch_nfca_picc_signal_decode+0x26>
200001a8:	f1f78e93          	addi	t4,a5,-225
200001ac:	01d36763          	bltu	t1,t4,200001ba <wch_nfca_picc_signal_decode+0xae>
200001b0:	10000793          	li	a5,256
200001b4:	867c                	.insn	2, 0x867c
200001b6:	4789                	li	a5,2
200001b8:	bf59                	j	2000014e <wch_nfca_picc_signal_decode+0x42>
200001ba:	f5f78793          	addi	a5,a5,-161
200001be:	00f37763          	bgeu	t1,a5,200001cc <wch_nfca_picc_signal_decode+0xc0>
200001c2:	4505                	li	a0,1
200001c4:	4472                	lw	s0,28(sp)
200001c6:	44e2                	lw	s1,24(sp)
200001c8:	6105                	addi	sp,sp,32
200001ca:	8082                	ret
200001cc:	00011623          	sh	zero,12(sp)
200001d0:	4789                	li	a5,2
200001d2:	4e01                	li	t3,0
200001d4:	bfad                	j	2000014e <wch_nfca_picc_signal_decode+0x42>
200001d6:	01d36663          	bltu	t1,t4,200001e2 <wch_nfca_picc_signal_decode+0xd6>
200001da:	00010623          	sb	zero,12(sp)
200001de:	4785                	li	a5,1
200001e0:	b7bd                	j	2000014e <wch_nfca_picc_signal_decode+0x42>
200001e2:	f5f78793          	addi	a5,a5,-161
200001e6:	f6f371e3          	bgeu	t1,a5,20000148 <wch_nfca_picc_signal_decode+0x3c>
200001ea:	bfe1                	j	200001c2 <wch_nfca_picc_signal_decode+0xb6>
200001ec:	00452e83          	lw	t4,4(a0)
200001f0:	011f1f33          	sll	t5,t5,a7
200001f4:	0885                	addi	a7,a7,1
200001f6:	9ec2                	add	t4,t4,a6
200001f8:	000ec283          	lbu	t0,0(t4)
200001fc:	0ff8f893          	zext.b	a7,a7
20000200:	01e2ef33          	or	t5,t0,t5
20000204:	01ee8023          	sb	t5,0(t4)
20000208:	bfad                	j	20000182 <wch_nfca_picc_signal_decode+0x76>
2000020a:	000e1563          	bnez	t3,20000214 <wch_nfca_picc_signal_decode+0x108>
2000020e:	295e                	.insn	2, 0x295e
20000210:	17fd                	addi	a5,a5,-1
20000212:	a95e                	.insn	2, 0xa95e
20000214:	01c50c23          	sb	t3,24(a0)
20000218:	4501                	li	a0,0
2000021a:	b76d                	j	200001c4 <wch_nfca_picc_signal_decode+0xb8>

2000021c <wch_nfca_picc_wait_signal_decode>:
2000021c:	7179                	addi	sp,sp,-48
2000021e:	d622                	sw	s0,44(sp)
20000220:	d426                	sw	s1,40(sp)
20000222:	d24a                	sw	s2,36(sp)
20000224:	d04e                	sw	s3,32(sp)
20000226:	ce52                	sw	s4,28(sp)
20000228:	87aa                	mv	a5,a0
2000022a:	00051a23          	sh	zero,20(a0)
2000022e:	4148                	lw	a0,4(a0)
20000230:	02000fb7          	lui	t6,0x2000
20000234:	4801                	li	a6,0
20000236:	00050023          	sb	zero,0(a0)
2000023a:	4301                	li	t1,0
2000023c:	4881                	li	a7,0
2000023e:	4501                	li	a0,0
20000240:	001f8393          	addi	t2,t6,1 # 2000001 <ch585_picc.c.61ef0a40+0x1ffe018>
20000244:	03f00e13          	li	t3,63
20000248:	4421                	li	s0,8
2000024a:	4485                	li	s1,1
2000024c:	40002937          	lui	s2,0x40002
20000250:	ffc70993          	addi	s3,a4,-4
20000254:	0005ae83          	lw	t4,0(a1)
20000258:	0075a023          	sw	t2,0(a1)
2000025c:	9876                	add	a6,a6,t4
2000025e:	050e7f63          	bgeu	t3,a6,200002bc <wch_nfca_picc_wait_signal_decode+0xa0>
20000262:	f9f80e93          	addi	t4,a6,-97
20000266:	c179                	beqz	a0,2000032c <wch_nfca_picc_wait_signal_decode+0x110>
20000268:	09de6963          	bltu	t3,t4,200002fa <wch_nfca_picc_wait_signal_decode+0xde>
2000026c:	8644                	.insn	2, 0x8644
2000026e:	4805                	li	a6,1
20000270:	4505                	li	a0,1
20000272:	4281                	li	t0,0
20000274:	00c10e93          	addi	t4,sp,12
20000278:	9e96                	add	t4,t4,t0
2000027a:	000ecf03          	lbu	t5,0(t4)
2000027e:	10831763          	bne	t1,s0,2000038c <wch_nfca_picc_wait_signal_decode+0x170>
20000282:	0087a303          	lw	t1,8(a5)
20000286:	9346                	add	t1,t1,a7
20000288:	01e30023          	sb	t5,0(t1)
2000028c:	0127d303          	lhu	t1,18(a5)
20000290:	0885                	addi	a7,a7,1
20000292:	0ff8f893          	zext.b	a7,a7
20000296:	0a68fd63          	bgeu	a7,t1,20000350 <wch_nfca_picc_wait_signal_decode+0x134>
2000029a:	0047a303          	lw	t1,4(a5)
2000029e:	9346                	add	t1,t1,a7
200002a0:	00030023          	sb	zero,0(t1)
200002a4:	4301                	li	t1,0
200002a6:	00128e93          	addi	t4,t0,1
200002aa:	4285                	li	t0,1
200002ac:	fd0ee4e3          	bltu	t4,a6,20000274 <wch_nfca_picc_wait_signal_decode+0x58>
200002b0:	0147de83          	lhu	t4,20(a5)
200002b4:	9876                	add	a6,a6,t4
200002b6:	01079a23          	sh	a6,20(a5)
200002ba:	4801                	li	a6,0
200002bc:	01492e83          	lw	t4,20(s2) # 40002014 <_eusrstack+0x1ffe2014>
200002c0:	8f4e                	mv	t5,s3
200002c2:	29de9e93          	.insn	4, 0x29de9e93
200002c6:	01d68463          	beq	a3,t4,200002ce <wch_nfca_picc_wait_signal_decode+0xb2>
200002ca:	ffce8f13          	addi	t5,t4,-4
200002ce:	03e59163          	bne	a1,t5,200002f0 <wch_nfca_picc_wait_signal_decode+0xd4>
200002d2:	400022b7          	lui	t0,0x40002
200002d6:	ffc70a13          	addi	s4,a4,-4
200002da:	0142ae83          	lw	t4,20(t0) # 40002014 <_eusrstack+0x1ffe2014>
200002de:	8f52                	mv	t5,s4
200002e0:	29de9e93          	.insn	4, 0x29de9e93
200002e4:	01d68463          	beq	a3,t4,200002ec <wch_nfca_picc_wait_signal_decode+0xd0>
200002e8:	ffce8f13          	addi	t5,t4,-4
200002ec:	ffe587e3          	beq	a1,t5,200002da <wch_nfca_picc_wait_signal_decode+0xbe>
200002f0:	0591                	addi	a1,a1,4
200002f2:	f6e5e1e3          	bltu	a1,a4,20000254 <wch_nfca_picc_wait_signal_decode+0x38>
200002f6:	85b6                	mv	a1,a3
200002f8:	bfb1                	j	20000254 <wch_nfca_picc_wait_signal_decode+0x38>
200002fa:	f1f80e93          	addi	t4,a6,-225
200002fe:	01de6863          	bltu	t3,t4,2000030e <wch_nfca_picc_wait_signal_decode+0xf2>
20000302:	10000813          	li	a6,256
20000306:	01011623          	sh	a6,12(sp)
2000030a:	4809                	li	a6,2
2000030c:	b79d                	j	20000272 <wch_nfca_picc_wait_signal_decode+0x56>
2000030e:	f5f80513          	addi	a0,a6,-161
20000312:	00ae6763          	bltu	t3,a0,20000320 <wch_nfca_picc_wait_signal_decode+0x104>
20000316:	00011623          	sh	zero,12(sp)
2000031a:	4809                	li	a6,2
2000031c:	4501                	li	a0,0
2000031e:	bf91                	j	20000272 <wch_nfca_picc_wait_signal_decode+0x56>
20000320:	03f86863          	bltu	a6,t6,20000350 <wch_nfca_picc_wait_signal_decode+0x134>
20000324:	4705                	li	a4,1
20000326:	af98                	.insn	2, 0xaf98
20000328:	4501                	li	a0,0
2000032a:	a0b9                	j	20000378 <wch_nfca_picc_wait_signal_decode+0x15c>
2000032c:	01de6663          	bltu	t3,t4,20000338 <wch_nfca_picc_wait_signal_decode+0x11c>
20000330:	00010623          	sb	zero,12(sp)
20000334:	4805                	li	a6,1
20000336:	bf35                	j	20000272 <wch_nfca_picc_wait_signal_decode+0x56>
20000338:	f5f80e93          	addi	t4,a6,-161
2000033c:	f3de78e3          	bgeu	t3,t4,2000026c <wch_nfca_picc_wait_signal_decode+0x50>
20000340:	01f86863          	bltu	a6,t6,20000350 <wch_nfca_picc_wait_signal_decode+0x134>
20000344:	2bda                	.insn	2, 0x2bda
20000346:	00078c23          	sb	zero,24(a5)
2000034a:	177d                	addi	a4,a4,-1
2000034c:	abda                	.insn	2, 0xabda
2000034e:	a02d                	j	20000378 <wch_nfca_picc_wait_signal_decode+0x15c>
20000350:	400028b7          	lui	a7,0x40002
20000354:	1771                	addi	a4,a4,-4
20000356:	02000837          	lui	a6,0x2000
2000035a:	0148a503          	lw	a0,20(a7) # 40002014 <_eusrstack+0x1ffe2014>
2000035e:	87ba                	mv	a5,a4
20000360:	29d51513          	.insn	4, 0x29d51513
20000364:	00d50463          	beq	a0,a3,2000036c <wch_nfca_picc_wait_signal_decode+0x150>
20000368:	ffc50793          	addi	a5,a0,-4
2000036c:	fef587e3          	beq	a1,a5,2000035a <wch_nfca_picc_wait_signal_decode+0x13e>
20000370:	4388                	lw	a0,0(a5)
20000372:	01056b63          	bltu	a0,a6,20000388 <wch_nfca_picc_wait_signal_decode+0x16c>
20000376:	4505                	li	a0,1
20000378:	5432                	lw	s0,44(sp)
2000037a:	c20c                	sw	a1,0(a2)
2000037c:	54a2                	lw	s1,40(sp)
2000037e:	5912                	lw	s2,36(sp)
20000380:	5982                	lw	s3,32(sp)
20000382:	4a72                	lw	s4,28(sp)
20000384:	6145                	addi	sp,sp,48
20000386:	8082                	ret
20000388:	85be                	mv	a1,a5
2000038a:	bfc1                	j	2000035a <wch_nfca_picc_wait_signal_decode+0x13e>
2000038c:	0047ae83          	lw	t4,4(a5)
20000390:	006f1f33          	sll	t5,t5,t1
20000394:	0305                	addi	t1,t1,1
20000396:	9ec6                	add	t4,t4,a7
20000398:	000eca03          	lbu	s4,0(t4)
2000039c:	0ff37313          	zext.b	t1,t1
200003a0:	01ea6f33          	or	t5,s4,t5
200003a4:	01ee8023          	sb	t5,0(t4)
200003a8:	bdfd                	j	200002a6 <wch_nfca_picc_wait_signal_decode+0x8a>

200003aa <wch_nfca_picc_send_bits>:
200003aa:	411c                	lw	a5,0(a0)
200003ac:	1141                	addi	sp,sp,-16
200003ae:	00c52803          	lw	a6,12(a0)
200003b2:	c422                	sw	s0,8(sp)
200003b4:	c606                	sw	ra,12(sp)
200003b6:	4721                	li	a4,8
200003b8:	c398                	sw	a4,0(a5)
200003ba:	0007a223          	sw	zero,4(a5)
200003be:	290e                	.insn	2, 0x290e
200003c0:	842a                	mv	s0,a0
200003c2:	07a1                	addi	a5,a5,8
200003c4:	0a080563          	beqz	a6,2000046e <wch_nfca_picc_send_bits+0xc4>
200003c8:	2976                	.insn	2, 0x2976
200003ca:	4505                	li	a0,1
200003cc:	00b68713          	addi	a4,a3,11
200003d0:	08b75463          	bge	a4,a1,20000458 <wch_nfca_picc_send_bits+0xae>
200003d4:	863e                	mv	a2,a5
200003d6:	4701                	li	a4,0
200003d8:	08d76463          	bltu	a4,a3,20000460 <wch_nfca_picc_send_bits+0xb6>
200003dc:	00042623          	sw	zero,12(s0)
200003e0:	20f6c7b3          	.insn	4, 0x20f6c7b3
200003e4:	02400613          	li	a2,36
200003e8:	853e                	mv	a0,a5
200003ea:	4581                	li	a1,0
200003ec:	e0000097          	auipc	ra,0xe0000
200003f0:	616080e7          	jalr	1558(ra) # a02 <memset>
200003f4:	40003737          	lui	a4,0x40003
200003f8:	c00700a3          	sb	zero,-1023(a4) # 40002c01 <_eusrstack+0x1ffe2c01>
200003fc:	4010                	lw	a2,0(s0)
200003fe:	c1870693          	addi	a3,a4,-1000
20000402:	02450793          	addi	a5,a0,36
20000406:	c290                	sw	a2,0(a3)
20000408:	c1c70693          	addi	a3,a4,-996
2000040c:	c29c                	sw	a5,0(a3)
2000040e:	c0074783          	lbu	a5,-1024(a4)
20000412:	0ff7f613          	zext.b	a2,a5
20000416:	0dd7f793          	andi	a5,a5,221
2000041a:	0027e713          	ori	a4,a5,2
2000041e:	2c1c                	.insn	2, 0x2c1c
20000420:	c3e9                	beqz	a5,200004e2 <wch_nfca_picc_send_bits+0x138>
20000422:	400026b7          	lui	a3,0x40002
20000426:	22fc                	.insn	2, 0x22fc
20000428:	8b85                	andi	a5,a5,1
2000042a:	dff5                	beqz	a5,20000426 <wch_nfca_picc_send_bits+0x7c>
2000042c:	400037b7          	lui	a5,0x40003
20000430:	c0e78023          	sb	a4,-1024(a5) # 40002c00 <_eusrstack+0x1ffe2c00>
20000434:	4689                	li	a3,2
20000436:	c0c78713          	addi	a4,a5,-1012
2000043a:	c314                	sw	a3,0(a4)
2000043c:	0001                	nop
2000043e:	0001                	nop
20000440:	46c9                	li	a3,18
20000442:	c314                	sw	a3,0(a4)
20000444:	c0c78023          	sb	a2,-1024(a5)
20000448:	4705                	li	a4,1
2000044a:	c0e780a3          	sb	a4,-1023(a5)
2000044e:	400027b7          	lui	a5,0x40002
20000452:	470d                	li	a4,3
20000454:	a398                	.insn	2, 0xa398
20000456:	4501                	li	a0,0
20000458:	40b2                	lw	ra,12(sp)
2000045a:	4422                	lw	s0,8(sp)
2000045c:	0141                	addi	sp,sp,16
2000045e:	8082                	ret
20000460:	00e805b3          	add	a1,a6,a4
20000464:	218c                	.insn	2, 0x218c
20000466:	0705                	addi	a4,a4,1
20000468:	c20c                	sw	a1,0(a2)
2000046a:	0611                	addi	a2,a2,4
2000046c:	b7b5                	j	200003d8 <wch_nfca_picc_send_bits+0x2e>
2000046e:	2952                	.insn	2, 0x2952
20000470:	46c9                	li	a3,18
20000472:	4505                	li	a0,1
20000474:	00365713          	srli	a4,a2,0x3
20000478:	02d70733          	mul	a4,a4,a3
2000047c:	0731                	addi	a4,a4,12
2000047e:	fce5ede3          	bltu	a1,a4,20000458 <wch_nfca_picc_send_bits+0xae>
20000482:	00442803          	lw	a6,4(s0)
20000486:	00842883          	lw	a7,8(s0)
2000048a:	4521                	li	a0,8
2000048c:	833e                	mv	t1,a5
2000048e:	86b2                	mv	a3,a2
20000490:	4701                	li	a4,0
20000492:	00084583          	lbu	a1,0(a6) # 2000000 <ch585_picc.c.61ef0a40+0x1ffe017>
20000496:	40d60e33          	sub	t3,a2,a3
2000049a:	49c5d5b3          	.insn	4, 0x49c5d5b3
2000049e:	4e21                	li	t3,8
200004a0:	c199                	beqz	a1,200004a6 <wch_nfca_picc_send_bits+0xfc>
200004a2:	45a1                	li	a1,8
200004a4:	4e01                	li	t3,0
200004a6:	c38c                	sw	a1,0(a5)
200004a8:	01c7a223          	sw	t3,4(a5) # 40002004 <_eusrstack+0x1ffe2004>
200004ac:	0705                	addi	a4,a4,1
200004ae:	16fd                	addi	a3,a3,-1 # 40001fff <_eusrstack+0x1ffe1fff>
200004b0:	07a1                	addi	a5,a5,8
200004b2:	0ff77713          	zext.b	a4,a4
200004b6:	cab1                	beqz	a3,2000050a <wch_nfca_picc_send_bits+0x160>
200004b8:	02a71063          	bne	a4,a0,200004d8 <wch_nfca_picc_send_bits+0x12e>
200004bc:	0008c703          	lbu	a4,0(a7)
200004c0:	ef11                	bnez	a4,200004dc <wch_nfca_picc_send_bits+0x132>
200004c2:	4601                	li	a2,0
200004c4:	4721                	li	a4,8
200004c6:	c390                	sw	a2,0(a5)
200004c8:	c3d8                	sw	a4,4(a5)
200004ca:	0885                	addi	a7,a7,1
200004cc:	01030793          	addi	a5,t1,16
200004d0:	0805                	addi	a6,a6,1
200004d2:	da89                	beqz	a3,200003e4 <wch_nfca_picc_send_bits+0x3a>
200004d4:	8636                	mv	a2,a3
200004d6:	bf5d                	j	2000048c <wch_nfca_picc_send_bits+0xe2>
200004d8:	833e                	mv	t1,a5
200004da:	bf65                	j	20000492 <wch_nfca_picc_send_bits+0xe8>
200004dc:	4621                	li	a2,8
200004de:	4701                	li	a4,0
200004e0:	b7dd                	j	200004c6 <wch_nfca_picc_send_bits+0x11c>
200004e2:	400027b7          	lui	a5,0x40002
200004e6:	23f4                	.insn	2, 0x23f4
200004e8:	8a85                	andi	a3,a3,1
200004ea:	f2a9                	bnez	a3,2000042c <wch_nfca_picc_send_bits+0x82>
200004ec:	4794                	lw	a3,8(a5)
200004ee:	47dc                	lw	a5,12(a5)
200004f0:	04000593          	li	a1,64
200004f4:	00f5f463          	bgeu	a1,a5,200004fc <wch_nfca_picc_send_bits+0x152>
200004f8:	fc078793          	addi	a5,a5,-64 # 40001fc0 <_eusrstack+0x1ffe1fc0>
200004fc:	f2f6f8e3          	bgeu	a3,a5,2000042c <wch_nfca_picc_send_bits+0x82>
20000500:	8f95                	sub	a5,a5,a3
20000502:	400026b7          	lui	a3,0x40002
20000506:	c6dc                	sw	a5,12(a3)
20000508:	bf29                	j	20000422 <wch_nfca_picc_send_bits+0x78>
2000050a:	faa709e3          	beq	a4,a0,200004bc <wch_nfca_picc_send_bits+0x112>
2000050e:	bdd9                	j	200003e4 <wch_nfca_picc_send_bits+0x3a>

20000510 <nfca_picc_rx_find_data>:
20000510:	87aa                	mv	a5,a0
20000512:	02b57063          	bgeu	a0,a1,20000532 <nfca_picc_rx_find_data+0x22>
20000516:	ffc58513          	addi	a0,a1,-4
2000051a:	02000737          	lui	a4,0x2000
2000051e:	4114                	lw	a3,0(a0)
20000520:	c601                	beqz	a2,20000528 <nfca_picc_rx_find_data+0x18>
20000522:	00e6e563          	bltu	a3,a4,2000052c <nfca_picc_rx_find_data+0x1c>
20000526:	8082                	ret
20000528:	00e6e663          	bltu	a3,a4,20000534 <nfca_picc_rx_find_data+0x24>
2000052c:	1571                	addi	a0,a0,-4
2000052e:	fef578e3          	bgeu	a0,a5,2000051e <nfca_picc_rx_find_data+0xe>
20000532:	4501                	li	a0,0
20000534:	8082                	ret

20000536 <nfca_picc_rx_irq_handler>:
20000536:	7179                	addi	sp,sp,-48
20000538:	400027b7          	lui	a5,0x40002
2000053c:	d422                	sw	s0,40(sp)
2000053e:	d226                	sw	s1,36(sp)
20000540:	d04a                	sw	s2,32(sp)
20000542:	d606                	sw	ra,44(sp)
20000544:	ce4e                	sw	s3,28(sp)
20000546:	23f8                	.insn	2, 0x23f8
20000548:	0ff77713          	zext.b	a4,a4
2000054c:	a3f8                	.insn	2, 0xa3f8
2000054e:	4f84                	lw	s1,24(a5)
20000550:	01c7a903          	lw	s2,28(a5) # 4000201c <_eusrstack+0x1ffe201c>
20000554:	4bc0                	lw	s0,20(a5)
20000556:	29d49493          	.insn	4, 0x29d49493
2000055a:	29d91913          	.insn	4, 0x29d91913
2000055e:	29d41413          	.insn	4, 0x29d41413
20000562:	12848663          	beq	s1,s0,2000068e <nfca_picc_rx_irq_handler+0x158>
20000566:	03246b63          	bltu	s0,s2,2000059c <nfca_picc_rx_irq_handler+0x66>
2000056a:	400027b7          	lui	a5,0x40002
2000056e:	4709                	li	a4,2
20000570:	a398                	.insn	2, 0xa398
20000572:	00078023          	sb	zero,0(a5) # 40002000 <_eusrstack+0x1ffe2000>
20000576:	4715                	li	a4,5
20000578:	b398                	.insn	2, 0xb398
2000057a:	12000713          	li	a4,288
2000057e:	c7d8                	sw	a4,12(a5)
20000580:	5715                	li	a4,-27
20000582:	a398                	.insn	2, 0xa398
20000584:	50b2                	lw	ra,44(sp)
20000586:	5422                	lw	s0,40(sp)
20000588:	e000e7b7          	lui	a5,0xe000e
2000058c:	6741                	lui	a4,0x10
2000058e:	28e7a023          	sw	a4,640(a5) # e000e280 <_eusrstack+0xbffee280>
20000592:	5492                	lw	s1,36(sp)
20000594:	5902                	lw	s2,32(sp)
20000596:	49f2                	lw	s3,28(sp)
20000598:	6145                	addi	sp,sp,48
2000059a:	8082                	ret
2000059c:	fc84f7e3          	bgeu	s1,s0,2000056a <nfca_picc_rx_irq_handler+0x34>
200005a0:	1471                	addi	s0,s0,-4
200005a2:	4018                	lw	a4,0(s0)
200005a4:	020007b7          	lui	a5,0x2000
200005a8:	0ef77c63          	bgeu	a4,a5,200006a0 <nfca_picc_rx_irq_handler+0x16a>
200005ac:	4605                	li	a2,1
200005ae:	85a2                	mv	a1,s0
200005b0:	8526                	mv	a0,s1
200005b2:	3fb9                	jal	20000510 <nfca_picc_rx_find_data>
200005b4:	e519                	bnez	a0,200005c2 <nfca_picc_rx_irq_handler+0x8c>
200005b6:	4605                	li	a2,1
200005b8:	85ca                	mv	a1,s2
200005ba:	00440513          	addi	a0,s0,4
200005be:	3f89                	jal	20000510 <nfca_picc_rx_find_data>
200005c0:	d54d                	beqz	a0,2000056a <nfca_picc_rx_irq_handler+0x34>
200005c2:	0511                	addi	a0,a0,4
200005c4:	01256363          	bltu	a0,s2,200005ca <nfca_picc_rx_irq_handler+0x94>
200005c8:	8526                	mv	a0,s1
200005ca:	020007b7          	lui	a5,0x2000
200005ce:	0785                	addi	a5,a5,1 # 2000001 <ch585_picc.c.61ef0a40+0x1ffe018>
200005d0:	c11c                	sw	a5,0(a0)
200005d2:	400026b7          	lui	a3,0x40002
200005d6:	ffc90613          	addi	a2,s2,-4
200005da:	4adc                	lw	a5,20(a3)
200005dc:	8732                	mv	a4,a2
200005de:	29d79793          	.insn	4, 0x29d79793
200005e2:	00978463          	beq	a5,s1,200005ea <nfca_picc_rx_irq_handler+0xb4>
200005e6:	ffc78713          	addi	a4,a5,-4
200005ea:	fea708e3          	beq	a4,a0,200005da <nfca_picc_rx_irq_handler+0xa4>
200005ee:	00450593          	addi	a1,a0,4
200005f2:	0125e363          	bltu	a1,s2,200005f8 <nfca_picc_rx_irq_handler+0xc2>
200005f6:	85a6                	mv	a1,s1
200005f8:	4198                	lw	a4,0(a1)
200005fa:	020007b7          	lui	a5,0x2000
200005fe:	f6f776e3          	bgeu	a4,a5,2000056a <nfca_picc_rx_irq_handler+0x34>
20000602:	874a                	mv	a4,s2
20000604:	86a6                	mv	a3,s1
20000606:	0070                	addi	a2,sp,12
20000608:	44418513          	addi	a0,gp,1092 # 20000fe8 <gs_nfca_picc_controller>
2000060c:	3901                	jal	2000021c <wch_nfca_picc_wait_signal_decode>
2000060e:	fd31                	bnez	a0,2000056a <nfca_picc_rx_irq_handler+0x34>
20000610:	400027b7          	lui	a5,0x40002
20000614:	4bdc                	lw	a5,20(a5)
20000616:	ffc90713          	addi	a4,s2,-4
2000061a:	29d79793          	.insn	4, 0x29d79793
2000061e:	00978463          	beq	a5,s1,20000626 <nfca_picc_rx_irq_handler+0xf0>
20000622:	ffc78713          	addi	a4,a5,-4 # 40001ffc <_eusrstack+0x1ffe1ffc>
20000626:	47b2                	lw	a5,12(sp)
20000628:	06f76663          	bltu	a4,a5,20000694 <nfca_picc_rx_irq_handler+0x15e>
2000062c:	8f1d                	sub	a4,a4,a5
2000062e:	00275793          	srli	a5,a4,0x2
20000632:	40002737          	lui	a4,0x40002
20000636:	4714                	lw	a3,8(a4)
20000638:	4609                	li	a2,2
2000063a:	000700a3          	sb	zero,1(a4) # 40002001 <_eusrstack+0x1ffe2001>
2000063e:	a310                	.insn	2, 0xa310
20000640:	0785                	addi	a5,a5,1
20000642:	12000713          	li	a4,288
20000646:	02e787b3          	mul	a5,a5,a4
2000064a:	4751                	li	a4,20
2000064c:	97b6                	add	a5,a5,a3
2000064e:	4c900693          	li	a3,1225
20000652:	00f6e563          	bltu	a3,a5,2000065c <nfca_picc_rx_irq_handler+0x126>
20000656:	4de00713          	li	a4,1246
2000065a:	8f1d                	sub	a4,a4,a5
2000065c:	400027b7          	lui	a5,0x40002
20000660:	c7d8                	sw	a4,12(a5)
20000662:	02400713          	li	a4,36
20000666:	a398                	.insn	2, 0xa398
20000668:	c141a783          	lw	a5,-1004(gp) # 200007b8 <gs_nfca_picc_cb>
2000066c:	ee078fe3          	beqz	a5,2000056a <nfca_picc_rx_irq_handler+0x34>
20000670:	43dc                	lw	a5,4(a5)
20000672:	ee078ce3          	beqz	a5,2000056a <nfca_picc_rx_irq_handler+0x34>
20000676:	44418413          	addi	s0,gp,1092 # 20000fe8 <gs_nfca_picc_controller>
2000067a:	284a                	.insn	2, 0x284a
2000067c:	9782                	jalr	a5
2000067e:	a84a                	.insn	2, 0xa84a
20000680:	ee0505e3          	beqz	a0,2000056a <nfca_picc_rx_irq_handler+0x34>
20000684:	8522                	mv	a0,s0
20000686:	3315                	jal	200003aa <wch_nfca_picc_send_bits>
20000688:	ee0511e3          	bnez	a0,2000056a <nfca_picc_rx_irq_handler+0x34>
2000068c:	bde5                	j	20000584 <nfca_picc_rx_irq_handler+0x4e>
2000068e:	ffc90413          	addi	s0,s2,-4
20000692:	bf01                	j	200005a2 <nfca_picc_rx_irq_handler+0x6c>
20000694:	97a6                	add	a5,a5,s1
20000696:	40f907b3          	sub	a5,s2,a5
2000069a:	97ba                	add	a5,a5,a4
2000069c:	8389                	srli	a5,a5,0x2
2000069e:	bf51                	j	20000632 <nfca_picc_rx_irq_handler+0xfc>
200006a0:	400027b7          	lui	a5,0x40002
200006a4:	4794                	lw	a3,8(a5)
200006a6:	4709                	li	a4,2
200006a8:	000780a3          	sb	zero,1(a5) # 40002001 <_eusrstack+0x1ffe2001>
200006ac:	a398                	.insn	2, 0xa398
200006ae:	3be00713          	li	a4,958
200006b2:	00078023          	sb	zero,0(a5)
200006b6:	8f15                	sub	a4,a4,a3
200006b8:	c7d8                	sw	a4,12(a5)
200006ba:	02400713          	li	a4,36
200006be:	a398                	.insn	2, 0xa398
200006c0:	4601                	li	a2,0
200006c2:	85a2                	mv	a1,s0
200006c4:	8526                	mv	a0,s1
200006c6:	35a9                	jal	20000510 <nfca_picc_rx_find_data>
200006c8:	c62a                	sw	a0,12(sp)
200006ca:	c10d                	beqz	a0,200006ec <nfca_picc_rx_irq_handler+0x1b6>
200006cc:	49b2                	lw	s3,12(sp)
200006ce:	0289e763          	bltu	s3,s0,200006fc <nfca_picc_rx_irq_handler+0x1c6>
200006d2:	4605                	li	a2,1
200006d4:	85ce                	mv	a1,s3
200006d6:	00440513          	addi	a0,s0,4
200006da:	3d1d                	jal	20000510 <nfca_picc_rx_find_data>
200006dc:	e80507e3          	beqz	a0,2000056a <nfca_picc_rx_irq_handler+0x34>
200006e0:	009987b3          	add	a5,s3,s1
200006e4:	40f907b3          	sub	a5,s2,a5
200006e8:	943e                	add	s0,s0,a5
200006ea:	a03d                	j	20000718 <nfca_picc_rx_irq_handler+0x1e2>
200006ec:	4601                	li	a2,0
200006ee:	85ca                	mv	a1,s2
200006f0:	00840513          	addi	a0,s0,8
200006f4:	3d31                	jal	20000510 <nfca_picc_rx_find_data>
200006f6:	c62a                	sw	a0,12(sp)
200006f8:	f971                	bnez	a0,200006cc <nfca_picc_rx_irq_handler+0x196>
200006fa:	bd85                	j	2000056a <nfca_picc_rx_irq_handler+0x34>
200006fc:	4605                	li	a2,1
200006fe:	85ce                	mv	a1,s3
20000700:	8526                	mv	a0,s1
20000702:	3539                	jal	20000510 <nfca_picc_rx_find_data>
20000704:	e901                	bnez	a0,20000714 <nfca_picc_rx_irq_handler+0x1de>
20000706:	4605                	li	a2,1
20000708:	85ca                	mv	a1,s2
2000070a:	00440513          	addi	a0,s0,4
2000070e:	3509                	jal	20000510 <nfca_picc_rx_find_data>
20000710:	e4050de3          	beqz	a0,2000056a <nfca_picc_rx_irq_handler+0x34>
20000714:	41340433          	sub	s0,s0,s3
20000718:	8009                	srli	s0,s0,0x2
2000071a:	07357c63          	bgeu	a0,s3,20000792 <nfca_picc_rx_irq_handler+0x25c>
2000071e:	40a989b3          	sub	s3,s3,a0
20000722:	47a1                	li	a5,8
20000724:	e537f3e3          	bgeu	a5,s3,2000056a <nfca_picc_rx_irq_handler+0x34>
20000728:	4791                	li	a5,4
2000072a:	0487e163          	bltu	a5,s0,2000076c <nfca_picc_rx_irq_handler+0x236>
2000072e:	400027b7          	lui	a5,0x40002
20000732:	02000713          	li	a4,32
20000736:	a398                	.insn	2, 0xa398
20000738:	23f8                	.insn	2, 0x23f8
2000073a:	8b05                	andi	a4,a4,1
2000073c:	e31d                	bnez	a4,20000762 <nfca_picc_rx_irq_handler+0x22c>
2000073e:	12000713          	li	a4,288
20000742:	02e40433          	mul	s0,s0,a4
20000746:	4798                	lw	a4,8(a5)
20000748:	943a                	add	s0,s0,a4
2000074a:	4c900713          	li	a4,1225
2000074e:	00876a63          	bltu	a4,s0,20000762 <nfca_picc_rx_irq_handler+0x22c>
20000752:	4709                	li	a4,2
20000754:	a398                	.insn	2, 0xa398
20000756:	4de00713          	li	a4,1246
2000075a:	00078023          	sb	zero,0(a5) # 40002000 <_eusrstack+0x1ffe2000>
2000075e:	8f01                	sub	a4,a4,s0
20000760:	c7d8                	sw	a4,12(a5)
20000762:	400027b7          	lui	a5,0x40002
20000766:	02400713          	li	a4,36
2000076a:	a398                	.insn	2, 0xa398
2000076c:	020007b7          	lui	a5,0x2000
20000770:	00450713          	addi	a4,a0,4
20000774:	0785                	addi	a5,a5,1 # 2000001 <ch585_picc.c.61ef0a40+0x1ffe018>
20000776:	03276263          	bltu	a4,s2,2000079a <nfca_picc_rx_irq_handler+0x264>
2000077a:	c09c                	sw	a5,0(s1)
2000077c:	00448593          	addi	a1,s1,4
20000780:	4632                	lw	a2,12(sp)
20000782:	874a                	mv	a4,s2
20000784:	86a6                	mv	a3,s1
20000786:	44418513          	addi	a0,gp,1092 # 20000fe8 <gs_nfca_picc_controller>
2000078a:	3249                	jal	2000010c <wch_nfca_picc_signal_decode>
2000078c:	dc051fe3          	bnez	a0,2000056a <nfca_picc_rx_irq_handler+0x34>
20000790:	bde1                	j	20000668 <nfca_picc_rx_irq_handler+0x132>
20000792:	99ca                	add	s3,s3,s2
20000794:	409989b3          	sub	s3,s3,s1
20000798:	b759                	j	2000071e <nfca_picc_rx_irq_handler+0x1e8>
2000079a:	c15c                	sw	a5,4(a0)
2000079c:	00850593          	addi	a1,a0,8
200007a0:	ff25e0e3          	bltu	a1,s2,20000780 <nfca_picc_rx_irq_handler+0x24a>
200007a4:	85a6                	mv	a1,s1
200007a6:	bfe9                	j	20000780 <nfca_picc_rx_irq_handler+0x24a>

Disassembly of section .text:

00000848 <nfca_picc_online>:

static void nfca_picc_online(void) {}
 848:	8082                	ret

0000084a <nfca_picc_offline>:
static void nfca_picc_offline(void) {}
 84a:	8082                	ret

0000084c <internal_handle_input.constprop.0>:
 84c:	e00007b7          	lui	a5,0xe0000
 850:	3407a783          	lw	a5,832(a5) # e0000340 <_eusrstack+0xbffe0340>
 854:	8082                	ret

00000856 <_write.constprop.0>:
 856:	7139                	addi	sp,sp,-64
 858:	dc22                	sw	s0,56(sp)
 85a:	e0000437          	lui	s0,0xe0000
 85e:	34040413          	addi	s0,s0,832 # e0000340 <_eusrstack+0xbffe0340>
 862:	401c                	lw	a5,0(s0)
 864:	de06                	sw	ra,60(sp)
 866:	da26                	sw	s1,52(sp)
 868:	d84a                	sw	s2,48(sp)
 86a:	d64e                	sw	s3,44(sp)
 86c:	d452                	sw	s4,40(sp)
 86e:	d256                	sw	s5,36(sp)
 870:	d05a                	sw	s6,32(sp)
 872:	ce5e                	sw	s7,28(sp)
 874:	0c07f793          	andi	a5,a5,192
 878:	0c000713          	li	a4,192
 87c:	00e78b63          	beq	a5,a4,892 <_write.constprop.0+0x3c>
 880:	c602                	sw	zero,12(sp)
 882:	84ae                	mv	s1,a1
 884:	e5d5                	bnez	a1,930 <_write.constprop.0+0xda>
 886:	401c                	lw	a5,0(s0)
 888:	c789                	beqz	a5,892 <_write.constprop.0+0x3c>
 88a:	0807f793          	andi	a5,a5,128
 88e:	e391                	bnez	a5,892 <_write.constprop.0+0x3c>
 890:	3f75                	jal	84c <internal_handle_input.constprop.0>
 892:	4481                	li	s1,0
 894:	50f2                	lw	ra,60(sp)
 896:	5462                	lw	s0,56(sp)
 898:	5942                	lw	s2,48(sp)
 89a:	59b2                	lw	s3,44(sp)
 89c:	5a22                	lw	s4,40(sp)
 89e:	5a92                	lw	s5,36(sp)
 8a0:	5b02                	lw	s6,32(sp)
 8a2:	4bf2                	lw	s7,28(sp)
 8a4:	8526                	mv	a0,s1
 8a6:	54d2                	lw	s1,52(sp)
 8a8:	6121                	addi	sp,sp,64
 8aa:	8082                	ret
 8ac:	412489b3          	sub	s3,s1,s2
 8b0:	013b5363          	bge	s6,s3,8b6 <_write.constprop.0+0x60>
 8b4:	499d                	li	s3,7
 8b6:	001007b7          	lui	a5,0x100
 8ba:	0785                	addi	a5,a5,1 # 100001 <ch585_picc.c.61ef0a40+0xfe018>
 8bc:	4018                	lw	a4,0(s0)
 8be:	08077693          	andi	a3,a4,128
 8c2:	e6b1                	bnez	a3,90e <_write.constprop.0+0xb8>
 8c4:	c311                	beqz	a4,8c8 <_write.constprop.0+0x72>
 8c6:	3759                	jal	84c <internal_handle_input.constprop.0>
 8c8:	0078                	addi	a4,sp,12
 8ca:	478d                	li	a5,3
 8cc:	863a                	mv	a2,a4
 8ce:	0537c763          	blt	a5,s3,91c <_write.constprop.0+0xc6>
 8d2:	47b2                	lw	a5,12(sp)
 8d4:	012a0733          	add	a4,s4,s2
 8d8:	00faa023          	sw	a5,0(s5)
 8dc:	4781                	li	a5,0
 8de:	00074583          	lbu	a1,0(a4)
 8e2:	0785                	addi	a5,a5,1
 8e4:	00f606b3          	add	a3,a2,a5
 8e8:	00b68023          	sb	a1,0(a3) # 40002000 <_eusrstack+0x1ffe2000>
 8ec:	00f98563          	beq	s3,a5,8f6 <_write.constprop.0+0xa0>
 8f0:	0705                	addi	a4,a4,1
 8f2:	ff7796e3          	bne	a5,s7,8de <_write.constprop.0+0x88>
 8f6:	00498793          	addi	a5,s3,4
 8fa:	f807e793          	ori	a5,a5,-128
 8fe:	00f10623          	sb	a5,12(sp)
 902:	47b2                	lw	a5,12(sp)
 904:	994e                	add	s2,s2,s3
 906:	c01c                	sw	a5,0(s0)
 908:	fa9942e3          	blt	s2,s1,8ac <_write.constprop.0+0x56>
 90c:	b761                	j	894 <_write.constprop.0+0x3e>
 90e:	17fd                	addi	a5,a5,-1
 910:	f7d5                	bnez	a5,8bc <_write.constprop.0+0x66>
 912:	401c                	lw	a5,0(s0)
 914:	0c07e793          	ori	a5,a5,192
 918:	c01c                	sw	a5,0(s0)
 91a:	bfa5                	j	892 <_write.constprop.0+0x3c>
 91c:	00f906b3          	add	a3,s2,a5
 920:	96d2                	add	a3,a3,s4
 922:	0006c683          	lbu	a3,0(a3)
 926:	0785                	addi	a5,a5,1
 928:	0705                	addi	a4,a4,1
 92a:	fed70fa3          	sb	a3,-1(a4)
 92e:	b745                	j	8ce <_write.constprop.0+0x78>
 930:	e0000ab7          	lui	s5,0xe0000
 934:	8a2a                	mv	s4,a0
 936:	4901                	li	s2,0
 938:	4b1d                	li	s6,7
 93a:	344a8a93          	addi	s5,s5,836 # e0000344 <_eusrstack+0xbffe0344>
 93e:	4b8d                	li	s7,3
 940:	b7e1                	j	908 <_write.constprop.0+0xb2>

00000942 <handle_reset>:
 942:	20000197          	auipc	gp,0x20000
 946:	26218193          	addi	gp,gp,610 # 20000ba4 <__global_pointer$>
 94a:	2001f117          	auipc	sp,0x2001f
 94e:	6b610113          	addi	sp,sp,1718 # 20020000 <_eusrstack>
 952:	c1418513          	addi	a0,gp,-1004 # 200007b8 <gs_nfca_picc_cb>
 956:	46018593          	addi	a1,gp,1120 # 20001004 <_ebss>
 95a:	00b57763          	bgeu	a0,a1,968 <handle_reset+0x26>
 95e:	00052023          	sw	zero,0(a0)
 962:	0511                	addi	a0,a0,4
 964:	feb56de3          	bltu	a0,a1,95e <handle_reset+0x1c>
 968:	0a000513          	li	a0,160
 96c:	1ffff597          	auipc	a1,0x1ffff
 970:	69458593          	addi	a1,a1,1684 # 20000000 <TMR0_IRQHandler>
 974:	20000617          	auipc	a2,0x20000
 978:	e3460613          	addi	a2,a2,-460 # 200007a8 <gs_nfca_picc_cb>
 97c:	00c5fa63          	bgeu	a1,a2,990 <handle_reset+0x4e>
 980:	00052283          	lw	t0,0(a0)
 984:	0055a023          	sw	t0,0(a1)
 988:	0511                	addi	a0,a0,4
 98a:	0591                	addi	a1,a1,4
 98c:	fec5eae3          	bltu	a1,a2,980 <handle_reset+0x3e>
 990:	00000517          	auipc	a0,0x0
 994:	45050513          	addi	a0,a0,1104 # de0 <_data_lma>
 998:	c0418593          	addi	a1,gp,-1020 # 200007a8 <gs_nfca_picc_cb>
 99c:	c1418613          	addi	a2,gp,-1004 # 200007b8 <gs_nfca_picc_cb>
 9a0:	00c58a63          	beq	a1,a2,9b4 <handle_reset+0x72>
 9a4:	00052283          	lw	t0,0(a0)
 9a8:	0055a023          	sw	t0,0(a1)
 9ac:	0511                	addi	a0,a0,4
 9ae:	0591                	addi	a1,a1,4
 9b0:	fec5eae3          	bltu	a1,a2,9a4 <handle_reset+0x62>
 9b4:	00000793          	li	a5,0
 9b8:	42fd                	li	t0,31
 9ba:	bc029073          	csrw	0xbc0,t0
 9be:	6289                	lui	t0,0x2
 9c0:	88828293          	addi	t0,t0,-1912 # 1888 <ch32fun.c.75567051+0x77c>
 9c4:	3002a073          	csrs	mstatus,t0
 9c8:	fffff297          	auipc	t0,0xfffff
 9cc:	63828293          	addi	t0,t0,1592 # 0 <InterruptVector>
 9d0:	0032e293          	ori	t0,t0,3
 9d4:	30529073          	csrw	mtvec,t0
 9d8:	e000f7b7          	lui	a5,0xe000f
 9dc:	4705                	li	a4,1
 9de:	c398                	sw	a4,0(a5)
 9e0:	6785                	lui	a5,0x1
 9e2:	abc78793          	addi	a5,a5,-1348 # abc <main>
 9e6:	34179073          	csrw	mepc,a5
 9ea:	30200073          	mret

000009ee <ADC1_2_IRQHandler>:
 9ee:	a001                	j	9ee <ADC1_2_IRQHandler>

000009f0 <strlen>:
 9f0:	87aa                	mv	a5,a0
 9f2:	0007c703          	lbu	a4,0(a5)
 9f6:	e701                	bnez	a4,9fe <strlen+0xe>
 9f8:	40a78533          	sub	a0,a5,a0
 9fc:	8082                	ret
 9fe:	0785                	addi	a5,a5,1
 a00:	bfcd                	j	9f2 <strlen+0x2>

00000a02 <memset>:
 a02:	962a                	add	a2,a2,a0
 a04:	87aa                	mv	a5,a0
 a06:	00c79363          	bne	a5,a2,a0c <memset+0xa>
 a0a:	8082                	ret
 a0c:	00b78023          	sb	a1,0(a5)
 a10:	0785                	addi	a5,a5,1
 a12:	bfd5                	j	a06 <memset+0x4>

00000a14 <puts>:
 a14:	1141                	addi	sp,sp,-16
 a16:	c606                	sw	ra,12(sp)
 a18:	c422                	sw	s0,8(sp)
 a1a:	c226                	sw	s1,4(sp)
 a1c:	84aa                	mv	s1,a0
 a1e:	3fc9                	jal	9f0 <strlen>
 a20:	842a                	mv	s0,a0
 a22:	85aa                	mv	a1,a0
 a24:	8526                	mv	a0,s1
 a26:	3d05                	jal	856 <_write.constprop.0>
 a28:	6505                	lui	a0,0x1
 a2a:	4585                	li	a1,1
 a2c:	cc050513          	addi	a0,a0,-832 # cc0 <nfca_picc_register_callback+0x6>
 a30:	351d                	jal	856 <_write.constprop.0>
 a32:	40b2                	lw	ra,12(sp)
 a34:	00140513          	addi	a0,s0,1
 a38:	4422                	lw	s0,8(sp)
 a3a:	4492                	lw	s1,4(sp)
 a3c:	0141                	addi	sp,sp,16
 a3e:	8082                	ret

00000a40 <SystemInit>:
 a40:	400017b7          	lui	a5,0x40001
 a44:	04078793          	addi	a5,a5,64 # 40001040 <_eusrstack+0x1ffe1040>
 a48:	05700593          	li	a1,87
 a4c:	00b78023          	sb	a1,0(a5)
 a50:	fa800613          	li	a2,-88
 a54:	00c78023          	sb	a2,0(a5)
 a58:	0001                	nop
 a5a:	0001                	nop
 a5c:	40001737          	lui	a4,0x40001
 a60:	00a74683          	lbu	a3,10(a4) # 4000100a <_eusrstack+0x1ffe100a>
 a64:	0106e693          	ori	a3,a3,16
 a68:	00d70523          	sb	a3,10(a4)
 a6c:	40002737          	lui	a4,0x40002
 a70:	4685                	li	a3,1
 a72:	80d703a3          	sb	a3,-2041(a4) # 40001807 <_eusrstack+0x1ffe1807>
 a76:	80574683          	lbu	a3,-2043(a4)
 a7a:	0106e693          	ori	a3,a3,16
 a7e:	80d702a3          	sb	a3,-2043(a4)
 a82:	00078023          	sb	zero,0(a5)
 a86:	0001                	nop
 a88:	0001                	nop
 a8a:	00b78023          	sb	a1,0(a5)
 a8e:	00c78023          	sb	a2,0(a5)
 a92:	0001                	nop
 a94:	0001                	nop
 a96:	40001737          	lui	a4,0x40001
 a9a:	34500693          	li	a3,837
 a9e:	00d71423          	sh	a3,8(a4) # 40001008 <_eusrstack+0x1ffe1008>
 aa2:	00078023          	sb	zero,0(a5)
 aa6:	0001                	nop
 aa8:	0001                	nop
 aaa:	e00007b7          	lui	a5,0xe0000
 aae:	3407a223          	sw	zero,836(a5) # e0000344 <_eusrstack+0xbffe0344>
 ab2:	08000713          	li	a4,128
 ab6:	34e7a023          	sw	a4,832(a5)
 aba:	8082                	ret

00000abc <main>:
	.data_handler = nfca_picc_data_handler,
	.offline = nfca_picc_offline,
};

int main()
{
 abc:	1101                	addi	sp,sp,-32
 abe:	cc22                	sw	s0,24(sp)
 ac0:	ce06                	sw	ra,28(sp)
	SystemInit();
 ac2:	3fbd                	jal	a40 <SystemInit>
		*(&R32_PA_PD_DRV + OFFSET_FOR_GPIOB(pin)) |= (pin & ~PB);
		*(&R32_PA_PU + OFFSET_FOR_GPIOB(pin))     &= ~(pin & ~PB);
		*(&R32_PA_DIR + OFFSET_FOR_GPIOB(pin))    &= ~(pin & ~PB);
		break;
	case GPIO_ModeOut_PP_5mA:
		*(&R32_PA_PD_DRV + OFFSET_FOR_GPIOB(pin)) &= ~(pin & ~PB);
 ac4:	40001737          	lui	a4,0x40001
 ac8:	0b470713          	addi	a4,a4,180 # 400010b4 <_eusrstack+0x1ffe10b4>
 acc:	431c                	lw	a5,0(a4)
	cfg.signal_buf = gs_picc_signal_buf;
 ace:	20000437          	lui	s0,0x20000
 ad2:	7c040413          	addi	s0,s0,1984 # 200007c0 <gs_picc_signal_buf>
 ad6:	eff7f793          	andi	a5,a5,-257
 ada:	c31c                	sw	a5,0(a4)
		*(&R32_PA_DIR + OFFSET_FOR_GPIOB(pin))    |= (pin & ~PB);
 adc:	400017b7          	lui	a5,0x40001
 ae0:	0a078793          	addi	a5,a5,160 # 400010a0 <_eusrstack+0x1ffe10a0>
 ae4:	4394                	lw	a3,0(a5)
	uint8_t res = nfca_picc_lib_init(&cfg);
 ae6:	850a                	mv	a0,sp
 ae8:	1006e693          	ori	a3,a3,256
 aec:	c394                	sw	a3,0(a5)
		*(&R32_PA_PD_DRV + OFFSET_FOR_GPIOB(pin)) &= ~(pin & ~PB);
 aee:	4314                	lw	a3,0(a4)
 af0:	f7f6f693          	andi	a3,a3,-129
 af4:	c314                	sw	a3,0(a4)
		*(&R32_PA_PU + OFFSET_FOR_GPIOB(pin))     &= ~(pin & ~PB);
 af6:	40001737          	lui	a4,0x40001
 afa:	0b070713          	addi	a4,a4,176 # 400010b0 <_eusrstack+0x1ffe10b0>
 afe:	4314                	lw	a3,0(a4)
 b00:	f7f6f693          	andi	a3,a3,-129
 b04:	c314                	sw	a3,0(a4)
		*(&R32_PA_DIR + OFFSET_FOR_GPIOB(pin))    &= ~(pin & ~PB);
 b06:	4398                	lw	a4,0(a5)
 b08:	f7f77713          	andi	a4,a4,-129
 b0c:	c398                	sw	a4,0(a5)
	R32_PIN_IN_DIS |= PA7; // disable PA7 digital input
 b0e:	400017b7          	lui	a5,0x40001
 b12:	4fd8                	lw	a4,28(a5)
		*(&R32_PA_PD_DRV + OFFSET_FOR_GPIOB(pin)) &= ~(pin & ~PB);
 b14:	0d478693          	addi	a3,a5,212 # 400010d4 <_eusrstack+0x1ffe10d4>
 b18:	08076713          	ori	a4,a4,128
 b1c:	cfd8                	sw	a4,28(a5)
 b1e:	4290                	lw	a2,0(a3)
 b20:	fffd0737          	lui	a4,0xfffd0
 b24:	cff70713          	addi	a4,a4,-769 # fffcfcff <_eusrstack+0xdffafcff>
 b28:	8e79                	and	a2,a2,a4
 b2a:	c290                	sw	a2,0(a3)
		*(&R32_PA_PU + OFFSET_FOR_GPIOB(pin))     &= ~(pin & ~PB);
 b2c:	0d078693          	addi	a3,a5,208
 b30:	4290                	lw	a2,0(a3)
 b32:	8e79                	and	a2,a2,a4
 b34:	c290                	sw	a2,0(a3)
		*(&R32_PA_DIR + OFFSET_FOR_GPIOB(pin))    &= ~(pin & ~PB);
 b36:	0c078693          	addi	a3,a5,192
 b3a:	4290                	lw	a2,0(a3)
 b3c:	8f71                	and	a4,a4,a2
 b3e:	c298                	sw	a4,0(a3)
	R32_PIN_IN_DIS |= (((PB8 | PB9) & ~PB) << 16); // disable PB8 PB9 digital input
 b40:	4fd8                	lw	a4,28(a5)
 b42:	030006b7          	lui	a3,0x3000
 b46:	8f55                	or	a4,a4,a3
 b48:	cfd8                	sw	a4,28(a5)
	R16_PIN_CONFIG |= (((PB16 | PB17) & ~PB) >> 8); // pin alt func
 b4a:	400017b7          	lui	a5,0x40001
 b4e:	01a7d703          	lhu	a4,26(a5) # 4000101a <_eusrstack+0x1ffe101a>
 b52:	30076713          	ori	a4,a4,768
 b56:	00e79d23          	sh	a4,26(a5)
	cfg.parity_buf = g_picc_parity_buf;
 b5a:	41c18793          	addi	a5,gp,1052 # 20000fc0 <g_picc_parity_buf>
 b5e:	c43e                	sw	a5,8(sp)
	cfg.data_buf = g_picc_data_buf;
 b60:	43018793          	addi	a5,gp,1072 # 20000fd4 <g_picc_data_buf>
 b64:	c23e                	sw	a5,4(sp)
	cfg.signal_buf_len = PICC_SIGNAL_BUF_LEN;
 b66:	001407b7          	lui	a5,0x140
 b6a:	20078793          	addi	a5,a5,512 # 140200 <ch585_picc.c.61ef0a40+0x13e217>
	cfg.signal_buf = gs_picc_signal_buf;
 b6e:	c022                	sw	s0,0(sp)
	cfg.signal_buf_len = PICC_SIGNAL_BUF_LEN;
 b70:	c63e                	sw	a5,12(sp)
	uint8_t res = nfca_picc_lib_init(&cfg);
 b72:	28fd                	jal	c70 <nfca_picc_lib_init>
	if(res) {
 b74:	c511                	beqz	a0,b80 <main+0xc4>
		printf("nfca picc lib init error\n");
 b76:	6505                	lui	a0,0x1
 b78:	cc450513          	addi	a0,a0,-828 # cc4 <nfca_picc_register_callback+0xa>
 b7c:	3d61                	jal	a14 <puts>
		while(1);
 b7e:	a001                	j	b7e <main+0xc2>
	funGpioInitAll(); // no-op on ch5xx

	funPinMode( PIN_LED, GPIO_CFGLR_OUT_2Mhz_PP ); // Set PIN_LED to output

	nfca_picc_init();
	nfca_picc_register_callback(&gs_nfca_picc_cb);
 b80:	c0418513          	addi	a0,gp,-1020 # 200007a8 <gs_nfca_picc_cb>
 b84:	2a1d                	jal	cba <nfca_picc_register_callback>
	R8_NFC_CMD = 0x48;
 b86:	4000e7b7          	lui	a5,0x4000e
 b8a:	04800713          	li	a4,72
 b8e:	00e78023          	sb	a4,0(a5) # 4000e000 <_eusrstack+0x1ffee000>
	R32_NFC_DRV = (R32_NFC_DRV & 0xf9cf) | 0x620;
 b92:	873e                	mv	a4,a5
 b94:	4bdc                	lw	a5,20(a5)
 b96:	66c1                	lui	a3,0x10
 b98:	9cf68693          	addi	a3,a3,-1585 # f9cf <ch585_picc.c.61ef0a40+0xd9e6>
 b9c:	8ff5                	and	a5,a5,a3
 b9e:	6207e793          	ori	a5,a5,1568
 ba2:	cb5c                	sw	a5,20(a4)
	R8_TMR3_CTRL_MOD = RB_TMR_ALL_CLEAR;
 ba4:	400037b7          	lui	a5,0x40003
 ba8:	4709                	li	a4,2
 baa:	c0e78023          	sb	a4,-1024(a5) # 40002c00 <_eusrstack+0x1ffe2c00>
	R8_TMR3_CTRL_MOD = (Low_Level << 4) | (PWM_Times_4 << 6) | RB_TMR_FREQ_13_56;
 bae:	07000693          	li	a3,112
 bb2:	c0d78023          	sb	a3,-1024(a5)
	R32_TMR3_CNT_END = TMR3_NFCA_PICC_CNT_END;
 bb6:	4649                	li	a2,18
 bb8:	c0c7a623          	sw	a2,-1012(a5)
	R32_TMR3_FIFO = 0;
 bbc:	c007a823          	sw	zero,-1008(a5)
	R32_TMR3_DMA_END = R32_TMR3_DMA_NOW + 0x100;
 bc0:	c147a683          	lw	a3,-1004(a5)
	R8_TMR3_INT_FLAG = RB_TMR_IF_DMA_END;
 bc4:	45a1                	li	a1,8
	R8_TMR0_CTRL_MOD = RB_TMR_ALL_CLEAR;
 bc6:	40002637          	lui	a2,0x40002
	R32_TMR3_DMA_END = R32_TMR3_DMA_NOW + 0x100;
 bca:	10068693          	addi	a3,a3,256
 bce:	c0d7ae23          	sw	a3,-996(a5)
	R8_TMR3_INT_FLAG = RB_TMR_IF_DMA_END;
 bd2:	c0b78323          	sb	a1,-1018(a5)
	R8_TMR3_INTER_EN = RB_TMR_IE_DMA_END;
 bd6:	c0b78123          	sb	a1,-1022(a5)
	R8_TMR3_CTRL_MOD = ((Low_Level << 4) | (PWM_Times_4 << 6) | RB_TMR_FREQ_13_56 | RB_TMR_COUNT_EN);
 bda:	07400693          	li	a3,116
 bde:	c0d78023          	sb	a3,-1024(a5)
	R8_TMR0_CTRL_MOD = RB_TMR_ALL_CLEAR;
 be2:	00e60023          	sb	a4,0(a2) # 40002000 <_eusrstack+0x1ffe2000>
	R8_TMR0_CTRL_MOD = RB_TMR_MODE_IN | (RiseEdge_To_RiseEdge << 6) | RB_TMR_FREQ_13_56;
 be6:	5785                	li	a5,-31
 be8:	00f60023          	sb	a5,0(a2)
	R32_TMR0_CNT_END = TMR0_NFCA_PICC_CNT_END;
 bec:	12000693          	li	a3,288
 bf0:	c654                	sw	a3,12(a2)
	R32_TMR0_DMA_END = R32_TMR0_DMA_NOW + 0x100;
 bf2:	4a5c                	lw	a5,20(a2)
	while( ((int32_t)( SysTick->CNT - targend )) < 0 );
#elif defined(CH32V20x) || defined(CH32V30x) || defined(CH32X03x) || defined(CH32L103) || defined(CH582_CH583) || defined(CH591_CH592)
	uint64_t targend = SysTick->CNT + n;
	while( ((int64_t)( SysTick->CNT - targend )) < 0 );
#elif defined(CH32V10x) || defined(CH570_CH572) || defined(CH584_CH585)
	uint32_t targend = SysTick->CNTL + n;
 bf4:	001dc6b7          	lui	a3,0x1dc
 bf8:	13068693          	addi	a3,a3,304 # 1dc130 <ch585_picc.c.61ef0a40+0x1da147>
 bfc:	10078793          	addi	a5,a5,256
 c00:	ce5c                	sw	a5,28(a2)
	R8_TMR0_INT_FLAG = RB_TMR_IF_DMA_END;
 c02:	00b60323          	sb	a1,6(a2)
	R32_TMR0_DMA_BEG = (uint32_t)gs_picc_signal_buf;
 c06:	ce00                	sw	s0,24(a2)
	R32_TMR0_DMA_END = (uint32_t)&(gs_picc_signal_buf[PICC_SIGNAL_BUF_LEN]);
 c08:	41c18593          	addi	a1,gp,1052 # 20000fc0 <g_picc_parity_buf>
 c0c:	ce4c                	sw	a1,28(a2)
	R8_TMR0_CTRL_DMA = RB_TMR_DMA_LOOP | RB_TMR_DMA_ENABLE;
 c0e:	4595                	li	a1,5
 c10:	00b600a3          	sb	a1,1(a2)
	R8_TMR0_INT_FLAG = RB_TMR_IF_DATA_ACT;
 c14:	00e60323          	sb	a4,6(a2)
	R8_TMR0_INTER_EN = RB_TMR_IE_DATA_ACT;
 c18:	00e60123          	sb	a4,2(a2)
	R8_TMR0_CTRL_MOD = (RB_TMR_MODE_IN | (RiseEdge_To_RiseEdge << 6) | RB_TMR_FREQ_13_56 | RB_TMR_COUNT_EN);
 c1c:	5795                	li	a5,-27
 c1e:	00f60023          	sb	a5,0(a2)
	NVIC->IENR[((uint32_t)(IRQn) >> 5)] = (1 << ((uint32_t)(IRQn) & 0x1F));
 c22:	4705                	li	a4,1
 c24:	e000e7b7          	lui	a5,0xe000e
 c28:	10e7a223          	sw	a4,260(a5) # e000e104 <_eusrstack+0xbffee104>
 c2c:	6741                	lui	a4,0x10
 c2e:	10e7a023          	sw	a4,256(a5)
	nfca_picc_start();

	while(1) {
		funDigitalWrite( PIN_LED, FUN_LOW );  // Turn on LED
		Delay_Ms( 250 );
		funDigitalWrite( PIN_LED, FUN_HIGH ); // Turn off LED
 c32:	40001637          	lui	a2,0x40001
		funDigitalWrite( PIN_LED, FUN_LOW );  // Turn on LED
 c36:	400017b7          	lui	a5,0x40001
 c3a:	0ac78793          	addi	a5,a5,172 # 400010ac <_eusrstack+0x1ffe10ac>
 c3e:	e000f737          	lui	a4,0xe000f
		funDigitalWrite( PIN_LED, FUN_HIGH ); // Turn off LED
 c42:	0a860613          	addi	a2,a2,168 # 400010a8 <_eusrstack+0x1ffe10a8>
		funDigitalWrite( PIN_LED, FUN_LOW );  // Turn on LED
 c46:	438c                	lw	a1,0(a5)
 c48:	1005e593          	ori	a1,a1,256
 c4c:	c38c                	sw	a1,0(a5)
 c4e:	4708                	lw	a0,8(a4)
 c50:	9536                	add	a0,a0,a3
	while( ((int32_t)( SysTick->CNTL - targend )) < 0 );
 c52:	470c                	lw	a1,8(a4)
 c54:	8d89                	sub	a1,a1,a0
 c56:	fe05cee3          	bltz	a1,c52 <main+0x196>
		funDigitalWrite( PIN_LED, FUN_HIGH ); // Turn off LED
 c5a:	420c                	lw	a1,0(a2)
 c5c:	1005e593          	ori	a1,a1,256
 c60:	c20c                	sw	a1,0(a2)
	uint32_t targend = SysTick->CNTL + n;
 c62:	4708                	lw	a0,8(a4)
 c64:	9536                	add	a0,a0,a3
	while( ((int32_t)( SysTick->CNTL - targend )) < 0 );
 c66:	470c                	lw	a1,8(a4)
 c68:	8d89                	sub	a1,a1,a0
 c6a:	fe05cee3          	bltz	a1,c66 <main+0x1aa>
 c6e:	bfe1                	j	c46 <main+0x18a>

00000c70 <nfca_picc_lib_init>:
 c70:	c1818693          	addi	a3,gp,-1000 # 200007bc <nfca_available>
 c74:	229c                	.insn	2, 0x229c
 c76:	c38d                	beqz	a5,c98 <nfca_picc_lib_init+0x28>
 c78:	4118                	lw	a4,0(a0)
 c7a:	44418793          	addi	a5,gp,1092 # 20000fe8 <gs_nfca_picc_controller>
 c7e:	c398                	sw	a4,0(a5)
 c80:	255a                	.insn	2, 0x255a
 c82:	ab9a                	.insn	2, 0xab9a
 c84:	4158                	lw	a4,4(a0)
 c86:	c3d8                	sw	a4,4(a5)
 c88:	257a                	.insn	2, 0x257a
 c8a:	abba                	.insn	2, 0xabba
 c8c:	4518                	lw	a4,8(a0)
 c8e:	4501                	li	a0,0
 c90:	c798                	sw	a4,8(a5)
 c92:	4401a823          	sw	zero,1104(gp) # 20000ff4 <gs_nfca_picc_controller+0xc>
 c96:	8082                	ret
 c98:	0007f7b7          	lui	a5,0x7f
 c9c:	53dc                	lw	a5,36(a5)
 c9e:	8bbd                	andi	a5,a5,15
 ca0:	17e9                	addi	a5,a5,-6 # 7effa <ch585_picc.c.61ef0a40+0x7d011>
 ca2:	0ff7f793          	zext.b	a5,a5
 ca6:	0027b713          	sltiu	a4,a5,2
 caa:	00174713          	xori	a4,a4,1
 cae:	a298                	.insn	2, 0xa298
 cb0:	4705                	li	a4,1
 cb2:	fcf763e3          	bltu	a4,a5,c78 <nfca_picc_lib_init+0x8>
 cb6:	4505                	li	a0,1
 cb8:	8082                	ret

00000cba <nfca_picc_register_callback>:
 cba:	c0a1aa23          	sw	a0,-1004(gp) # 200007b8 <gs_nfca_picc_cb>
 cbe:	8082                	ret
 cc0:	000a                	c.slli	zero,0x2
 cc2:	0000                	unimp
 cc4:	666e                	.insn	2, 0x666e
 cc6:	70206163          	bltu	zero,sp,13c8 <ch32fun.c.75567051+0x2bc>
 cca:	6369                	lui	t1,0x1a
 ccc:	696c2063          	.insn	4, 0x696c2063
 cd0:	2062                	.insn	2, 0x2062
 cd2:	6e69                	lui	t3,0x1a
 cd4:	7469                	lui	s0,0xffffa
 cd6:	6520                	.insn	2, 0x6520
 cd8:	7272                	.insn	2, 0x7272
 cda:	0000726f          	jal	tp,7cda <ch585_picc.c.61ef0a40+0x5cf1>
	...

00000ce0 <byteParityBitsTable>:
 ce0:	01000001 00010100 00010100 01000001     ................
 cf0:	00010100 01000001 01000001 00010100     ................
 d00:	00010100 01000001 01000001 00010100     ................
 d10:	01000001 00010100 00010100 01000001     ................
 d20:	00010100 01000001 01000001 00010100     ................
 d30:	01000001 00010100 00010100 01000001     ................
 d40:	01000001 00010100 00010100 01000001     ................
 d50:	00010100 01000001 01000001 00010100     ................
 d60:	00010100 01000001 01000001 00010100     ................
 d70:	01000001 00010100 00010100 01000001     ................
 d80:	01000001 00010100 00010100 01000001     ................
 d90:	00010100 01000001 01000001 00010100     ................
 da0:	01000001 00010100 00010100 01000001     ................
 db0:	00010100 01000001 01000001 00010100     ................
 dc0:	00010100 01000001 01000001 00010100     ................
 dd0:	01000001 00010100 00010100 01000001     ................
